; Function Attrs: mustprogress nofree norecurse nosync nounwind null_pointer_is_valid sspstrong willreturn memory(argmem: read) uwtable
define internal i32 @rlc_frag_hash(ptr noundef readonly captures(none) %0) #9 {
  %2 = load i32, ptr %0, align 8
  %3 = shl i32 %2, 12
  %4 = getelementptr inbounds nuw i8, ptr %0, i64 28
  %5 = load i16, ptr %4, align 4
  %6 = zext i16 %5 to i32
  %7 = or i32 %3, %6
  ret i32 %7
}